target datalayout = "e-m:e-p270:32:32-p271:32:32-p272:64:64-i64:64-i128:128-f80:128-n8:16:32:64-S128"
target triple = "x86_64-pc-linux-gnu"

%"class.pxrInternal_v0_24__pxrReserved__::UsdGeomPrimvar" = type <{ %"class.pxrInternal_v0_24__pxrReserved__::UsdAttribute", %"class.pxrInternal_v0_24__pxrReserved__::TfToken", %"struct.std::atomic", [4 x i8] }>
%"class.pxrInternal_v0_24__pxrReserved__::UsdAttribute" = type { %"class.pxrInternal_v0_24__pxrReserved__::UsdProperty" }
%"class.pxrInternal_v0_24__pxrReserved__::UsdProperty" = type { %"class.pxrInternal_v0_24__pxrReserved__::UsdObject" }
%"class.pxrInternal_v0_24__pxrReserved__::UsdObject" = type { i32, %"class.pxrInternal_v0_24__pxrReserved__::Usd_PrimDataHandle", %"class.pxrInternal_v0_24__pxrReserved__::SdfPath", %"class.pxrInternal_v0_24__pxrReserved__::TfToken" }
%"class.pxrInternal_v0_24__pxrReserved__::Usd_PrimDataHandle" = type { %"class.pxrInternal_v0_24__pxrReserved__::TfDelegatedCountPtr" }
%"class.pxrInternal_v0_24__pxrReserved__::TfDelegatedCountPtr" = type { ptr }
%"class.pxrInternal_v0_24__pxrReserved__::SdfPath" = type { %"struct.pxrInternal_v0_24__pxrReserved__::Sdf_PathNodeHandleImpl", %"struct.pxrInternal_v0_24__pxrReserved__::Sdf_PathNodeHandleImpl.0" }
%"struct.pxrInternal_v0_24__pxrReserved__::Sdf_PathNodeHandleImpl" = type { %"struct.pxrInternal_v0_24__pxrReserved__::Sdf_Pool<pxrInternal_v0_24__pxrReserved__::Sdf_PathPrimTag, 24, 8>::Handle" }
%"struct.pxrInternal_v0_24__pxrReserved__::Sdf_Pool<pxrInternal_v0_24__pxrReserved__::Sdf_PathPrimTag, 24, 8>::Handle" = type { i32 }
%"struct.pxrInternal_v0_24__pxrReserved__::Sdf_PathNodeHandleImpl.0" = type { %"struct.pxrInternal_v0_24__pxrReserved__::Sdf_Pool<pxrInternal_v0_24__pxrReserved__::Sdf_PathPropTag, 24, 8>::Handle" }
%"struct.pxrInternal_v0_24__pxrReserved__::Sdf_Pool<pxrInternal_v0_24__pxrReserved__::Sdf_PathPropTag, 24, 8>::Handle" = type { i32 }
%"class.pxrInternal_v0_24__pxrReserved__::TfToken" = type { %"class.pxrInternal_v0_24__pxrReserved__::TfPointerAndBits" }
%"class.pxrInternal_v0_24__pxrReserved__::TfPointerAndBits" = type { ptr }
%"struct.std::atomic" = type { i32 }
%"class.pxrInternal_v0_24__pxrReserved__::UsdRelationship" = type { %"class.pxrInternal_v0_24__pxrReserved__::UsdProperty" }
%"class.pxrInternal_v0_24__pxrReserved__::Usd_PrimData" = type { ptr, ptr, %"class.pxrInternal_v0_24__pxrReserved__::SdfPath", ptr, ptr, %"class.pxrInternal_v0_24__pxrReserved__::TfPointerAndBits.23", %"struct.std::atomic.24", %"class.std::bitset" }
%"class.pxrInternal_v0_24__pxrReserved__::TfPointerAndBits.23" = type { ptr }
%"struct.std::atomic.24" = type { %"struct.std::__atomic_base.25" }
%"struct.std::__atomic_base.25" = type { i64 }
%"class.std::bitset" = type { %"struct.std::_Base_bitset" }
%"struct.std::_Base_bitset" = type { i64 }

; Function Attrs: mustprogress nounwind uwtable
define linkonce_odr noundef i64 @_ZNSt12_Base_bitsetILm1EE11_S_whichbitEm(i64 noundef %0) #0 comdat align 2 {
  %2 = alloca i64, align 8
  store i64 %0, ptr %2, align 8
  %3 = load i64, ptr %2, align 8
  %4 = urem i64 %3, 64
  ret i64 %4
}

; Function Attrs: mustprogress nounwind uwtable
define linkonce_odr noundef i64 @_ZNSt12_Base_bitsetILm1EE10_S_maskbitEm(i64 noundef %0) #0 comdat align 2 {
  %2 = alloca i64, align 8
  store i64 %0, ptr %2, align 8
  %3 = load i64, ptr %2, align 8
  %4 = call noundef i64 @_ZNSt12_Base_bitsetILm1EE11_S_whichbitEm(i64 noundef %3) #6
  %5 = shl i64 1, %4
  ret i64 %5
}

; Function Attrs: mustprogress nounwind uwtable
define linkonce_odr noundef i64 @_ZNKSt12_Base_bitsetILm1EE10_M_getwordEm(ptr noundef nonnull align 8 dereferenceable(8) %0, i64 noundef %1) #0 comdat align 2 {
  %3 = alloca ptr, align 8
  %4 = alloca i64, align 8
  store ptr %0, ptr %3, align 8
  store i64 %1, ptr %4, align 8
  %5 = load ptr, ptr %3, align 8
  %6 = getelementptr inbounds nuw %"struct.std::_Base_bitset", ptr %5, i32 0, i32 0
  %7 = load i64, ptr %6, align 8
  ret i64 %7
}

; Function Attrs: mustprogress nounwind uwtable
define linkonce_odr noundef zeroext i1 @_ZNKSt6bitsetILm15EE15_Unchecked_testEm(ptr noundef nonnull align 8 dereferenceable(8) %0, i64 noundef %1) #0 comdat align 2 {
  %3 = alloca ptr, align 8
  %4 = alloca i64, align 8
  store ptr %0, ptr %3, align 8
  store i64 %1, ptr %4, align 8
  %5 = load ptr, ptr %3, align 8
  %6 = load i64, ptr %4, align 8
  %7 = call noundef i64 @_ZNKSt12_Base_bitsetILm1EE10_M_getwordEm(ptr noundef nonnull align 8 dereferenceable(8) %5, i64 noundef %6) #6
  %8 = load i64, ptr %4, align 8
  %9 = call noundef i64 @_ZNSt12_Base_bitsetILm1EE10_S_maskbitEm(i64 noundef %8) #6
  %10 = and i64 %7, %9
  %11 = icmp ne i64 %10, 0
  ret i1 %11
}

; Function Attrs: mustprogress nounwind uwtable
define linkonce_odr noundef zeroext i1 @_ZNKSt6bitsetILm15EEixEm(ptr noundef nonnull align 8 dereferenceable(8) %0, i64 noundef %1) #0 comdat align 2 {
  %3 = alloca ptr, align 8
  %4 = alloca i64, align 8
  store ptr %0, ptr %3, align 8
  store i64 %1, ptr %4, align 8
  %5 = load ptr, ptr %3, align 8
  %6 = load i64, ptr %4, align 8
  %7 = call noundef zeroext i1 @_ZNKSt6bitsetILm15EE15_Unchecked_testEm(ptr noundef nonnull align 8 dereferenceable(8) %5, i64 noundef %6) #6
  ret i1 %7
}

; Function Attrs: mustprogress uwtable
define linkonce_odr noundef zeroext i1 @_ZNK32pxrInternal_v0_24__pxrReserved__12Usd_PrimData7_IsDeadEv(ptr noundef nonnull align 8 dereferenceable(64) %0) #1 comdat align 2 {
  %2 = alloca ptr, align 8
  store ptr %0, ptr %2, align 8
  %3 = load ptr, ptr %2, align 8
  %4 = getelementptr inbounds nuw %"class.pxrInternal_v0_24__pxrReserved__::Usd_PrimData", ptr %3, i32 0, i32 7
  %5 = call noundef zeroext i1 @_ZNKSt6bitsetILm15EEixEm(ptr noundef nonnull align 8 dereferenceable(8) %4, i64 noundef 11)
  ret i1 %5
}

; Function Attrs: mustprogress uwtable
define linkonce_odr noundef zeroext i1 @_ZN32pxrInternal_v0_24__pxrReserved__10Usd_IsDeadEPKNS_12Usd_PrimDataE(ptr noundef %0) #1 comdat {
  %2 = alloca ptr, align 8
  store ptr %0, ptr %2, align 8
  %3 = load ptr, ptr %2, align 8
  %4 = call noundef zeroext i1 @_ZNK32pxrInternal_v0_24__pxrReserved__12Usd_PrimData7_IsDeadEv(ptr noundef nonnull align 8 dereferenceable(64) %3)
  ret i1 %4
}

; Function Attrs: mustprogress nounwind uwtable
define linkonce_odr noundef ptr @_ZNK32pxrInternal_v0_24__pxrReserved__19TfDelegatedCountPtrIKNS_12Usd_PrimDataEE3getEv(ptr noundef nonnull align 8 dereferenceable(8) %0) #0 comdat align 2 {
  %2 = alloca ptr, align 8
  store ptr %0, ptr %2, align 8
  %3 = load ptr, ptr %2, align 8
  %4 = getelementptr inbounds nuw %"class.pxrInternal_v0_24__pxrReserved__::TfDelegatedCountPtr", ptr %3, i32 0, i32 0
  %5 = load ptr, ptr %4, align 8
  ret ptr %5
}

; Function Attrs: mustprogress uwtable
define linkonce_odr noundef zeroext i1 @_ZNK32pxrInternal_v0_24__pxrReserved__18Usd_PrimDataHandlecvbEv(ptr noundef nonnull align 8 dereferenceable(8) %0) #1 comdat align 2 {
  %2 = alloca ptr, align 8
  %3 = alloca ptr, align 8
  store ptr %0, ptr %2, align 8
  %4 = load ptr, ptr %2, align 8
  %5 = getelementptr inbounds nuw %"class.pxrInternal_v0_24__pxrReserved__::Usd_PrimDataHandle", ptr %4, i32 0, i32 0
  %6 = call noundef ptr @_ZNK32pxrInternal_v0_24__pxrReserved__19TfDelegatedCountPtrIKNS_12Usd_PrimDataEE3getEv(ptr noundef nonnull align 8 dereferenceable(8) %5) #6
  store ptr %6, ptr %3, align 8
  %7 = load ptr, ptr %3, align 8
  %8 = icmp ne ptr %7, null
  br i1 %8, label %9, label %13

9:                                                ; preds = %1
  %10 = load ptr, ptr %3, align 8
  %11 = call noundef zeroext i1 @_ZN32pxrInternal_v0_24__pxrReserved__10Usd_IsDeadEPKNS_12Usd_PrimDataE(ptr noundef %10)
  %12 = xor i1 %11, true
  br label %13

13:                                               ; preds = %9, %1
  %14 = phi i1 [ false, %1 ], [ %12, %9 ]
  ret i1 %14
}

; Function Attrs: mustprogress nounwind uwtable
define linkonce_odr noundef zeroext i1 @_ZN32pxrInternal_v0_24__pxrReserved__13UsdIsConcreteENS_10UsdObjTypeE(i32 noundef %0) #0 comdat {
  %2 = alloca i32, align 4
  store i32 %0, ptr %2, align 4
  %3 = load i32, ptr %2, align 4
  %4 = icmp eq i32 %3, 1
  br i1 %4, label %11, label %5

5:                                                ; preds = %1
  %6 = load i32, ptr %2, align 4
  %7 = icmp eq i32 %6, 3
  br i1 %7, label %11, label %8

8:                                                ; preds = %5
  %9 = load i32, ptr %2, align 4
  %10 = icmp eq i32 %9, 4
  br label %11

11:                                               ; preds = %8, %5, %1
  %12 = phi i1 [ true, %5 ], [ true, %1 ], [ %10, %8 ]
  ret i1 %12
}

; Function Attrs: mustprogress nounwind uwtable
define linkonce_odr noundef i64 @_ZNK32pxrInternal_v0_24__pxrReserved__16TfPointerAndBitsIKNS_7TfToken4_RepEE6_AsIntEPS3_(ptr noundef nonnull align 8 dereferenceable(8) %0, ptr noundef %1) #0 comdat align 2 {
  %3 = alloca ptr, align 8
  %4 = alloca ptr, align 8
  store ptr %0, ptr %3, align 8
  store ptr %1, ptr %4, align 8
  %5 = load ptr, ptr %4, align 8
  %6 = ptrtoint ptr %5 to i64
  ret i64 %6
}

; Function Attrs: mustprogress uwtable
define linkonce_odr noundef zeroext i1 @_ZNK32pxrInternal_v0_24__pxrReserved__9UsdObject7IsValidEv(ptr noundef nonnull align 8 dereferenceable(32) %0) #1 comdat align 2 {
  %2 = alloca i1, align 1
  %3 = alloca ptr, align 8
  %4 = alloca i32, align 4
  store ptr %0, ptr %3, align 8
  %5 = load ptr, ptr %3, align 8
  %6 = getelementptr inbounds nuw %"class.pxrInternal_v0_24__pxrReserved__::UsdObject", ptr %5, i32 0, i32 0
  %7 = load i32, ptr %6, align 8
  %8 = call noundef zeroext i1 @_ZN32pxrInternal_v0_24__pxrReserved__13UsdIsConcreteENS_10UsdObjTypeE(i32 noundef %7)
  br i1 %8, label %9, label %12

9:                                                ; preds = %1
  %10 = getelementptr inbounds nuw %"class.pxrInternal_v0_24__pxrReserved__::UsdObject", ptr %5, i32 0, i32 1
  %11 = call noundef zeroext i1 @_ZNK32pxrInternal_v0_24__pxrReserved__18Usd_PrimDataHandlecvbEv(ptr noundef nonnull align 8 dereferenceable(8) %10)
  br i1 %11, label %13, label %12

12:                                               ; preds = %9, %1
  store i1 false, ptr %2, align 1
  br label %37

13:                                               ; preds = %9
  %14 = getelementptr inbounds nuw %"class.pxrInternal_v0_24__pxrReserved__::UsdObject", ptr %5, i32 0, i32 0
  %15 = load i32, ptr %14, align 8
  %16 = icmp eq i32 %15, 1
  br i1 %16, label %17, label %18

17:                                               ; preds = %13
  store i1 true, ptr %2, align 1
  br label %37

18:                                               ; preds = %13
  %19 = call noundef i32 @_ZNK32pxrInternal_v0_24__pxrReserved__9UsdObject20_GetDefiningSpecTypeEv(ptr noundef nonnull align 8 dereferenceable(32) %5)
  store i32 %19, ptr %4, align 4
  %20 = getelementptr inbounds nuw %"class.pxrInternal_v0_24__pxrReserved__::UsdObject", ptr %5, i32 0, i32 0
  %21 = load i32, ptr %20, align 8
  %22 = icmp eq i32 %21, 3
  br i1 %22, label %23, label %26

23:                                               ; preds = %18
  %24 = load i32, ptr %4, align 4
  %25 = icmp eq i32 %24, 1
  br i1 %25, label %35, label %26

26:                                               ; preds = %23, %18
  %27 = getelementptr inbounds nuw %"class.pxrInternal_v0_24__pxrReserved__::UsdObject", ptr %5, i32 0, i32 0
  %28 = load i32, ptr %27, align 8
  %29 = icmp eq i32 %28, 4
  br i1 %29, label %30, label %33

30:                                               ; preds = %26
  %31 = load i32, ptr %4, align 4
  %32 = icmp eq i32 %31, 8
  br label %33

33:                                               ; preds = %30, %26
  %34 = phi i1 [ false, %26 ], [ %32, %30 ]
  br label %35

35:                                               ; preds = %33, %23
  %36 = phi i1 [ true, %23 ], [ %34, %33 ]
  store i1 %36, ptr %2, align 1
  br label %37

37:                                               ; preds = %35, %17, %12
  %38 = load i1, ptr %2, align 1
  ret i1 %38
}

; Function Attrs: mustprogress nounwind uwtable
define linkonce_odr noundef i64 @_ZNK32pxrInternal_v0_24__pxrReserved__16TfPointerAndBitsIKNS_7TfToken4_RepEE10GetLiteralEv(ptr noundef nonnull align 8 dereferenceable(8) %0) #0 comdat align 2 {
  %2 = alloca ptr, align 8
  store ptr %0, ptr %2, align 8
  %3 = load ptr, ptr %2, align 8
  %4 = getelementptr inbounds nuw %"class.pxrInternal_v0_24__pxrReserved__::TfPointerAndBits", ptr %3, i32 0, i32 0
  %5 = load ptr, ptr %4, align 8
  %6 = call noundef i64 @_ZNK32pxrInternal_v0_24__pxrReserved__16TfPointerAndBitsIKNS_7TfToken4_RepEE6_AsIntEPS3_(ptr noundef nonnull align 8 dereferenceable(8) %3, ptr noundef %5) #6
  ret i64 %6
}

; Function Attrs: mustprogress uwtable
define linkonce_odr noundef zeroext i1 @_ZNK32pxrInternal_v0_24__pxrReserved__9UsdObjectcvbEv(ptr noundef nonnull align 8 dereferenceable(32) %0) #1 comdat align 2 {
  %2 = alloca ptr, align 8
  store ptr %0, ptr %2, align 8
  %3 = load ptr, ptr %2, align 8
  %4 = call noundef zeroext i1 @_ZNK32pxrInternal_v0_24__pxrReserved__9UsdObject7IsValidEv(ptr noundef nonnull align 8 dereferenceable(32) %3)
  ret i1 %4
}

; Function Attrs: mustprogress nounwind uwtable
define linkonce_odr noundef zeroext i1 @_ZNK32pxrInternal_v0_24__pxrReserved__7TfToken7IsEmptyEv(ptr noundef nonnull align 8 dereferenceable(8) %0) #0 comdat align 2 {
  %2 = alloca ptr, align 8
  store ptr %0, ptr %2, align 8
  %3 = load ptr, ptr %2, align 8
  %4 = getelementptr inbounds nuw %"class.pxrInternal_v0_24__pxrReserved__::TfToken", ptr %3, i32 0, i32 0
  %5 = call noundef i64 @_ZNK32pxrInternal_v0_24__pxrReserved__16TfPointerAndBitsIKNS_7TfToken4_RepEE10GetLiteralEv(ptr noundef nonnull align 8 dereferenceable(8) %4) #6
  %6 = icmp eq i64 %5, 0
  ret i1 %6
}

; Function Attrs: mustprogress uwtable
define noundef zeroext i1 @_ZNK32pxrInternal_v0_24__pxrReserved__14UsdGeomPrimvar10IsIdTargetEv(ptr noundef nonnull align 8 dereferenceable(44) %0) #1 align 2 personality ptr @__gxx_personality_v0 {
  %2 = alloca i1, align 1
  %3 = alloca ptr, align 8
  %4 = alloca %"class.pxrInternal_v0_24__pxrReserved__::UsdRelationship", align 8
  %5 = alloca i1, align 1
  %6 = alloca ptr, align 8
  %7 = alloca i32, align 4
  store ptr %0, ptr %3, align 8
  %8 = load ptr, ptr %3, align 8
  %9 = call noundef zeroext i1 @_ZNK32pxrInternal_v0_24__pxrReserved__14UsdGeomPrimvar27_ComputeIdTargetPossibilityEv(ptr noundef nonnull align 8 dereferenceable(44) %8)
  store i1 false, ptr %5, align 1
  br i1 %9, label %10, label %16

10:                                               ; preds = %1
  %11 = getelementptr inbounds nuw %"class.pxrInternal_v0_24__pxrReserved__::UsdGeomPrimvar", ptr %8, i32 0, i32 1
  %12 = call noundef zeroext i1 @_ZNK32pxrInternal_v0_24__pxrReserved__7TfToken7IsEmptyEv(ptr noundef nonnull align 8 dereferenceable(8) %11)
  br i1 %12, label %16, label %13

13:                                               ; preds = %10
  call void @_ZNK32pxrInternal_v0_24__pxrReserved__14UsdGeomPrimvar15_GetIdTargetRelEb(ptr dead_on_unwind writable sret(%"class.pxrInternal_v0_24__pxrReserved__::UsdRelationship") align 8 %4, ptr noundef nonnull align 8 dereferenceable(44) %8, i1 noundef zeroext false)
  store i1 true, ptr %5, align 1
  %14 = invoke noundef zeroext i1 @_ZNK32pxrInternal_v0_24__pxrReserved__9UsdObjectcvbEv(ptr noundef nonnull align 8 dereferenceable(32) %4)
          to label %15 unwind label %22

15:                                               ; preds = %13
  br label %16

16:                                               ; preds = %15, %10, %1
  %17 = phi i1 [ false, %10 ], [ false, %1 ], [ %14, %15 ]
  store i1 %17, ptr %2, align 1
  %18 = load i1, ptr %5, align 1
  br i1 %18, label %19, label %20

19:                                               ; preds = %16
  call void @_ZN32pxrInternal_v0_24__pxrReserved__15UsdRelationshipD2Ev(ptr noundef nonnull align 8 dereferenceable(32) %4) #6
  br label %20

20:                                               ; preds = %19, %16
  %21 = load i1, ptr %2, align 1
  ret i1 %21

22:                                               ; preds = %13
  %23 = landingpad { ptr, i32 }
          cleanup
  %24 = extractvalue { ptr, i32 } %23, 0
  store ptr %24, ptr %6, align 8
  %25 = extractvalue { ptr, i32 } %23, 1
  store i32 %25, ptr %7, align 4
  %26 = load i1, ptr %5, align 1
  br i1 %26, label %27, label %28

27:                                               ; preds = %22
  call void @_ZN32pxrInternal_v0_24__pxrReserved__15UsdRelationshipD2Ev(ptr noundef nonnull align 8 dereferenceable(32) %4) #6
  br label %28

28:                                               ; preds = %27, %22
  br label %29

29:                                               ; preds = %28
  %30 = load ptr, ptr %6, align 8
  %31 = load i32, ptr %7, align 4
  %32 = insertvalue { ptr, i32 } poison, ptr %30, 0
  %33 = insertvalue { ptr, i32 } %32, i32 %31, 1
  resume { ptr, i32 } %33
}