; Function Attrs: mustprogress uwtable
define noundef zeroext i1 @_ZNK32pxrInternal_v0_24__pxrReserved__14UsdGeomPrimvar10IsIdTargetEv(ptr noundef nonnull align 8 dereferenceable(44) %0) local_unnamed_addr #1 align 2 personality ptr @__gxx_personality_v0 {
  %2 = alloca %"class.pxrInternal_v0_24__pxrReserved__::UsdRelationship", align 8
  %3 = tail call noundef zeroext i1 @_ZNK32pxrInternal_v0_24__pxrReserved__14UsdGeomPrimvar27_ComputeIdTargetPossibilityEv(ptr noundef nonnull align 8 dereferenceable(44) %0)
  %4 = getelementptr inbounds nuw i8, ptr %0, i64 32
  %5 = load ptr, ptr %4, align 8
  %6 = icmp ne ptr %5, null
  %or.cond.not = select i1 %3, i1 %6, i1 false
  br i1 %or.cond.not, label %7, label %_ZNK32pxrInternal_v0_24__pxrReserved__9UsdObjectcvbEv.exit

7:                                                ; preds = %1
  call void @_ZNK32pxrInternal_v0_24__pxrReserved__14UsdGeomPrimvar15_GetIdTargetRelEb(ptr dead_on_unwind nonnull writable sret(%"class.pxrInternal_v0_24__pxrReserved__::UsdRelationship") align 8 %2, ptr noundef nonnull align 8 dereferenceable(44) %0, i1 noundef zeroext false)
  %8 = load i32, ptr %2, align 8
  switch i32 %8, label %26 [
    i32 4, label %9
    i32 3, label %9
    i32 1, label %9
  ]

9:                                                ; preds = %7, %7, %7
  %10 = getelementptr inbounds nuw i8, ptr %2, i64 8
  %11 = load ptr, ptr %10, align 8
  %.not.i.i.i = icmp eq ptr %11, null
  br i1 %.not.i.i.i, label %26, label %_ZNK32pxrInternal_v0_24__pxrReserved__18Usd_PrimDataHandlecvbEv.exit.i.i

_ZNK32pxrInternal_v0_24__pxrReserved__18Usd_PrimDataHandlecvbEv.exit.i.i: ; preds = %9
  %12 = getelementptr inbounds nuw i8, ptr %11, i64 56
  %13 = load i64, ptr %12, align 8
  %14 = and i64 %13, 2048
  %.not3.i.i.i = icmp eq i64 %14, 0
  br i1 %.not3.i.i.i, label %15, label %26

15:                                               ; preds = %_ZNK32pxrInternal_v0_24__pxrReserved__18Usd_PrimDataHandlecvbEv.exit.i.i
  %16 = icmp eq i32 %8, 1
  br i1 %16, label %26, label %17

17:                                               ; preds = %15
  %18 = invoke noundef i32 @_ZNK32pxrInternal_v0_24__pxrReserved__9UsdObject20_GetDefiningSpecTypeEv(ptr noundef nonnull align 8 dereferenceable(32) %2)
          to label %.noexc unwind label %61

.noexc:                                           ; preds = %17
  %19 = load i32, ptr %2, align 8
  %20 = icmp eq i32 %19, 3
  %21 = icmp eq i32 %18, 1
  %or.cond.i.i = and i1 %21, %20
  br i1 %or.cond.i.i, label %26, label %22

22:                                               ; preds = %.noexc
  %23 = icmp eq i32 %19, 4
  %24 = icmp eq i32 %18, 8
  %25 = and i1 %24, %23
  br label %26

26:                                               ; preds = %7, %9, %_ZNK32pxrInternal_v0_24__pxrReserved__18Usd_PrimDataHandlecvbEv.exit.i.i, %15, %.noexc, %22
  %.ph = phi i1 [ false, %9 ], [ true, %.noexc ], [ %25, %22 ], [ true, %15 ], [ false, %7 ], [ false, %_ZNK32pxrInternal_v0_24__pxrReserved__18Usd_PrimDataHandlecvbEv.exit.i.i ]
  %27 = getelementptr inbounds nuw i8, ptr %2, i64 24
  %28 = load ptr, ptr %27, align 8
  %29 = ptrtoint ptr %28 to i64
  %30 = and i64 %29, 7
  %.not.i.i.i.i.i = icmp eq i64 %30, 0
  br i1 %.not.i.i.i.i.i, label %_ZN32pxrInternal_v0_24__pxrReserved__7TfTokenD2Ev.exit.i.i.i, label %31

31:                                               ; preds = %26
  %32 = and i64 %29, -8
  %33 = inttoptr i64 %32 to ptr
  %34 = atomicrmw sub ptr %33, i32 2 release, align 4
  br label %_ZN32pxrInternal_v0_24__pxrReserved__7TfTokenD2Ev.exit.i.i.i

_ZN32pxrInternal_v0_24__pxrReserved__7TfTokenD2Ev.exit.i.i.i: ; preds = %31, %26
  %35 = getelementptr inbounds nuw i8, ptr %2, i64 16
  %36 = load i32, ptr %35, align 8
  %.not.i.i1.i.i.i = icmp eq i32 %36, 0
  br i1 %.not.i.i1.i.i.i, label %_ZN32pxrInternal_v0_24__pxrReserved__7SdfPathD2Ev.exit.i.i.i, label %37

37:                                               ; preds = %_ZN32pxrInternal_v0_24__pxrReserved__7TfTokenD2Ev.exit.i.i.i
  %38 = and i32 %36, 255
  %39 = lshr i32 %36, 8
  %40 = zext nneg i32 %38 to i64
  %41 = getelementptr inbounds [257 x ptr], ptr @_ZN32pxrInternal_v0_24__pxrReserved__8Sdf_PoolINS_15Sdf_PathPrimTagELj24ELj8ELj16384EE13_regionStartsE, i64 0, i64 %40
  %42 = load ptr, ptr %41, align 8
  %43 = mul nuw nsw i32 %39, 24
  %44 = zext nneg i32 %43 to i64
  %45 = getelementptr inbounds i8, ptr %42, i64 %44
  %46 = getelementptr inbounds nuw i8, ptr %45, i64 8
  %47 = atomicrmw sub ptr %46, i32 1 seq_cst, align 4
  %48 = and i32 %47, 2147483647
  %49 = icmp eq i32 %48, 1
  br i1 %49, label %50, label %_ZN32pxrInternal_v0_24__pxrReserved__7SdfPathD2Ev.exit.i.i.i

50:                                               ; preds = %37
  invoke void @_ZNK32pxrInternal_v0_24__pxrReserved__12Sdf_PathNode8_DestroyEv(ptr noundef nonnull align 8 dereferenceable(16) %45)
          to label %_ZN32pxrInternal_v0_24__pxrReserved__7SdfPathD2Ev.exit.i.i.i unwind label %51

51:                                               ; preds = %50
  %52 = landingpad { ptr, i32 }
          catch ptr null
  %53 = extractvalue { ptr, i32 } %52, 0
  call void @__clang_call_terminate(ptr %53) #22
  unreachable

_ZN32pxrInternal_v0_24__pxrReserved__7SdfPathD2Ev.exit.i.i.i: ; preds = %50, %37, %_ZN32pxrInternal_v0_24__pxrReserved__7TfTokenD2Ev.exit.i.i.i
  %54 = getelementptr inbounds nuw i8, ptr %2, i64 8
  %55 = load ptr, ptr %54, align 8
  %.not.i.i.i.i.i.i = icmp eq ptr %55, null
  br i1 %.not.i.i.i.i.i.i, label %_ZNK32pxrInternal_v0_24__pxrReserved__9UsdObjectcvbEv.exit, label %56

56:                                               ; preds = %_ZN32pxrInternal_v0_24__pxrReserved__7SdfPathD2Ev.exit.i.i.i
  %57 = getelementptr inbounds nuw i8, ptr %55, i64 48
  %58 = atomicrmw sub ptr %57, i64 1 release, align 8
  %.not1.i.i.i.i.i.i = icmp eq i64 %58, 1
  br i1 %.not1.i.i.i.i.i.i, label %59, label %_ZNK32pxrInternal_v0_24__pxrReserved__9UsdObjectcvbEv.exit

59:                                               ; preds = %56
  call void @_ZN32pxrInternal_v0_24__pxrReserved__12Usd_PrimDataD1Ev(ptr noundef nonnull align 8 dereferenceable(64) %55) #18
  call void @_ZdlPvm(ptr noundef nonnull %55, i64 noundef 64) #21
  br label %_ZNK32pxrInternal_v0_24__pxrReserved__9UsdObjectcvbEv.exit

_ZNK32pxrInternal_v0_24__pxrReserved__9UsdObjectcvbEv.exit: ; preds = %59, %56, %_ZN32pxrInternal_v0_24__pxrReserved__7SdfPathD2Ev.exit.i.i.i, %1
  %60 = phi i1 [ false, %1 ], [ %.ph, %_ZN32pxrInternal_v0_24__pxrReserved__7SdfPathD2Ev.exit.i.i.i ], [ %.ph, %56 ], [ %.ph, %59 ]
  ret i1 %60

61:                                               ; preds = %17
  %62 = landingpad { ptr, i32 }
          cleanup
  call void @_ZN32pxrInternal_v0_24__pxrReserved__15UsdRelationshipD2Ev(ptr noundef nonnull align 8 dereferenceable(32) %2) #18
  resume { ptr, i32 } %62
}